target datalayout = "e-m:e-p270:32:32-p271:32:32-p272:64:64-i64:64-i128:128-f80:128-n8:16:32:64-S128"
target triple = "x86_64-pc-linux-gnu"

; Function Attrs: nounwind uwtable
define i32 @HIST_count_simple(ptr noundef %0, ptr noundef %1, ptr noundef %2, i64 noundef %3) #0 {
  %5 = alloca i32, align 4
  %6 = alloca ptr, align 8
  %7 = alloca ptr, align 8
  %8 = alloca ptr, align 8
  %9 = alloca i64, align 8
  %10 = alloca ptr, align 8
  %11 = alloca ptr, align 8
  %12 = alloca i32, align 4
  %13 = alloca i32, align 4
  %14 = alloca i32, align 4
  %15 = alloca i32, align 4
  store ptr %0, ptr %6, align 8, !tbaa !7
  store ptr %1, ptr %7, align 8, !tbaa !7
  store ptr %2, ptr %8, align 8, !tbaa !10
  store i64 %3, ptr %9, align 8, !tbaa !3
  call void @llvm.lifetime.start.p0(i64 8, ptr %10) #5
  %16 = load ptr, ptr %8, align 8, !tbaa !10
  store ptr %16, ptr %10, align 8, !tbaa !11
  call void @llvm.lifetime.start.p0(i64 8, ptr %11) #5
  %17 = load ptr, ptr %10, align 8, !tbaa !11
  %18 = load i64, ptr %9, align 8, !tbaa !3
  %19 = getelementptr inbounds nuw i8, ptr %17, i64 %18
  store ptr %19, ptr %11, align 8, !tbaa !11
  call void @llvm.lifetime.start.p0(i64 4, ptr %12) #5
  %20 = load ptr, ptr %7, align 8, !tbaa !7
  %21 = load i32, ptr %20, align 4, !tbaa !14
  store i32 %21, ptr %12, align 4, !tbaa !14
  call void @llvm.lifetime.start.p0(i64 4, ptr %13) #5
  store i32 0, ptr %13, align 4, !tbaa !14
  %22 = load ptr, ptr %6, align 8, !tbaa !7
  %23 = load i32, ptr %12, align 4, !tbaa !14
  %24 = add i32 %23, 1
  %25 = zext i32 %24 to i64
  %26 = mul i64 %25, 4
  call void @llvm.memset.p0.i64(ptr align 4 %22, i8 0, i64 %26, i1 false)
  %27 = load i64, ptr %9, align 8, !tbaa !3
  %28 = icmp eq i64 %27, 0
  br i1 %28, label %29, label %31

29:                                               ; preds = %4
  %30 = load ptr, ptr %7, align 8, !tbaa !7
  store i32 0, ptr %30, align 4, !tbaa !14
  store i32 0, ptr %5, align 4
  store i32 1, ptr %14, align 4
  br label %84

31:                                               ; preds = %4
  br label %32

32:                                               ; preds = %36, %31
  %33 = load ptr, ptr %10, align 8, !tbaa !11
  %34 = load ptr, ptr %11, align 8, !tbaa !11
  %35 = icmp ult ptr %33, %34
  br i1 %35, label %36, label %45

36:                                               ; preds = %32
  %37 = load ptr, ptr %6, align 8, !tbaa !7
  %38 = load ptr, ptr %10, align 8, !tbaa !11
  %39 = getelementptr inbounds nuw i8, ptr %38, i32 1
  store ptr %39, ptr %10, align 8, !tbaa !11
  %40 = load i8, ptr %38, align 1, !tbaa !13
  %41 = zext i8 %40 to i64
  %42 = getelementptr inbounds nuw i32, ptr %37, i64 %41
  %43 = load i32, ptr %42, align 4, !tbaa !14
  %44 = add i32 %43, 1
  store i32 %44, ptr %42, align 4, !tbaa !14
  br label %32, !llvm.loop !18

45:                                               ; preds = %32
  br label %46

46:                                               ; preds = %54, %45
  %47 = load ptr, ptr %6, align 8, !tbaa !7
  %48 = load i32, ptr %12, align 4, !tbaa !14
  %49 = zext i32 %48 to i64
  %50 = getelementptr inbounds nuw i32, ptr %47, i64 %49
  %51 = load i32, ptr %50, align 4, !tbaa !14
  %52 = icmp ne i32 %51, 0
  %53 = xor i1 %52, true
  br i1 %53, label %54, label %57

54:                                               ; preds = %46
  %55 = load i32, ptr %12, align 4, !tbaa !14
  %56 = add i32 %55, -1
  store i32 %56, ptr %12, align 4, !tbaa !14
  br label %46, !llvm.loop !19

57:                                               ; preds = %46
  %58 = load i32, ptr %12, align 4, !tbaa !14
  %59 = load ptr, ptr %7, align 8, !tbaa !7
  store i32 %58, ptr %59, align 4, !tbaa !14
  call void @llvm.lifetime.start.p0(i64 4, ptr %15) #5
  store i32 0, ptr %15, align 4, !tbaa !14
  br label %60

60:                                               ; preds = %79, %57
  %61 = load i32, ptr %15, align 4, !tbaa !14
  %62 = load i32, ptr %12, align 4, !tbaa !14
  %63 = icmp ule i32 %61, %62
  br i1 %63, label %64, label %82

64:                                               ; preds = %60
  %65 = load ptr, ptr %6, align 8, !tbaa !7
  %66 = load i32, ptr %15, align 4, !tbaa !14
  %67 = zext i32 %66 to i64
  %68 = getelementptr inbounds nuw i32, ptr %65, i64 %67
  %69 = load i32, ptr %68, align 4, !tbaa !14
  %70 = load i32, ptr %13, align 4, !tbaa !14
  %71 = icmp ugt i32 %69, %70
  br i1 %71, label %72, label %78

72:                                               ; preds = %64
  %73 = load ptr, ptr %6, align 8, !tbaa !7
  %74 = load i32, ptr %15, align 4, !tbaa !14
  %75 = zext i32 %74 to i64
  %76 = getelementptr inbounds nuw i32, ptr %73, i64 %75
  %77 = load i32, ptr %76, align 4, !tbaa !14
  store i32 %77, ptr %13, align 4, !tbaa !14
  br label %78

78:                                               ; preds = %72, %64
  br label %79

79:                                               ; preds = %78
  %80 = load i32, ptr %15, align 4, !tbaa !14
  %81 = add i32 %80, 1
  store i32 %81, ptr %15, align 4, !tbaa !14
  br label %60, !llvm.loop !20

82:                                               ; preds = %60
  call void @llvm.lifetime.end.p0(i64 4, ptr %15) #5
  %83 = load i32, ptr %13, align 4, !tbaa !14
  store i32 %83, ptr %5, align 4
  store i32 1, ptr %14, align 4
  br label %84

84:                                               ; preds = %82, %29
  call void @llvm.lifetime.end.p0(i64 4, ptr %13) #5
  call void @llvm.lifetime.end.p0(i64 4, ptr %12) #5
  call void @llvm.lifetime.end.p0(i64 8, ptr %11) #5
  call void @llvm.lifetime.end.p0(i64 8, ptr %10) #5
  %85 = load i32, ptr %5, align 4
  ret i32 %85
}

; Function Attrs: nounwind uwtable
define i64 @HIST_countFast_wksp(ptr noundef %0, ptr noundef %1, ptr noundef %2, i64 noundef %3, ptr noundef %4, i64 noundef %5) #0 {
  %7 = alloca i64, align 8
  %8 = alloca ptr, align 8
  %9 = alloca ptr, align 8
  %10 = alloca ptr, align 8
  %11 = alloca i64, align 8
  %12 = alloca ptr, align 8
  %13 = alloca i64, align 8
  store ptr %0, ptr %8, align 8, !tbaa !7
  store ptr %1, ptr %9, align 8, !tbaa !7
  store ptr %2, ptr %10, align 8, !tbaa !10
  store i64 %3, ptr %11, align 8, !tbaa !3
  store ptr %4, ptr %12, align 8, !tbaa !10
  store i64 %5, ptr %13, align 8, !tbaa !3
  %14 = load i64, ptr %11, align 8, !tbaa !3
  %15 = icmp ult i64 %14, 1500
  br i1 %15, label %16, label %23

16:                                               ; preds = %6
  %17 = load ptr, ptr %8, align 8, !tbaa !7
  %18 = load ptr, ptr %9, align 8, !tbaa !7
  %19 = load ptr, ptr %10, align 8, !tbaa !10
  %20 = load i64, ptr %11, align 8, !tbaa !3
  %21 = call i32 @HIST_count_simple(ptr noundef %17, ptr noundef %18, ptr noundef %19, i64 noundef %20)
  %22 = zext i32 %21 to i64
  store i64 %22, ptr %7, align 8
  br label %40

23:                                               ; preds = %6
  %24 = load ptr, ptr %12, align 8, !tbaa !10
  %25 = ptrtoint ptr %24 to i64
  %26 = and i64 %25, 3
  %27 = icmp ne i64 %26, 0
  br i1 %27, label %28, label %29

28:                                               ; preds = %23
  store i64 -1, ptr %7, align 8
  br label %40

29:                                               ; preds = %23
  %30 = load i64, ptr %13, align 8, !tbaa !3
  %31 = icmp ult i64 %30, 4096
  br i1 %31, label %32, label %33

32:                                               ; preds = %29
  store i64 -66, ptr %7, align 8
  br label %40

33:                                               ; preds = %29
  %34 = load ptr, ptr %8, align 8, !tbaa !7
  %35 = load ptr, ptr %9, align 8, !tbaa !7
  %36 = load ptr, ptr %10, align 8, !tbaa !10
  %37 = load i64, ptr %11, align 8, !tbaa !3
  %38 = load ptr, ptr %12, align 8, !tbaa !10
  %39 = call i64 @HIST_count_parallel_wksp(ptr noundef %34, ptr noundef %35, ptr noundef %36, i64 noundef %37, i32 noundef 0, ptr noundef %38)
  store i64 %39, ptr %7, align 8
  br label %40

40:                                               ; preds = %33, %32, %28, %16
  %41 = load i64, ptr %7, align 8
  ret i64 %41
}